target datalayout = "e-m:e-p270:32:32-p271:32:32-p272:64:64-i64:64-i128:128-f80:128-n8:16:32:64-S128"
target triple = "x86_64-pc-linux-gnu"

%class.Jipopt = type { %"class.Ipopt::TNLP.base", ptr, ptr, i32, i32, i32, i32, i32, ptr, ptr, ptr, ptr, ptr, ptr, ptr, ptr, ptr, i8, i8, %"class.Ipopt::SmartPtr", ptr, ptr, ptr, ptr, ptr, ptr, ptr, ptr, ptr, ptr, ptr }
%"class.Ipopt::TNLP.base" = type { %"class.Ipopt::ReferencedObject.base" }
%"class.Ipopt::ReferencedObject.base" = type <{ ptr, i32 }>
%"class.Ipopt::SmartPtr" = type { ptr }
%struct.JNIEnv_ = type { ptr }
%struct.JNINativeInterface_ = type { ptr, ptr, ptr, ptr, ptr, ptr, ptr, ptr, ptr, ptr, ptr, ptr, ptr, ptr, ptr, ptr, ptr, ptr, ptr, ptr, ptr, ptr, ptr, ptr, ptr, ptr, ptr, ptr, ptr, ptr, ptr, ptr, ptr, ptr, ptr, ptr, ptr, ptr, ptr, ptr, ptr, ptr, ptr, ptr, ptr, ptr, ptr, ptr, ptr, ptr, ptr, ptr, ptr, ptr, ptr, ptr, ptr, ptr, ptr, ptr, ptr, ptr, ptr, ptr, ptr, ptr, ptr, ptr, ptr, ptr, ptr, ptr, ptr, ptr, ptr, ptr, ptr, ptr, ptr, ptr, ptr, ptr, ptr, ptr, ptr, ptr, ptr, ptr, ptr, ptr, ptr, ptr, ptr, ptr, ptr, ptr, ptr, ptr, ptr, ptr, ptr, ptr, ptr, ptr, ptr, ptr, ptr, ptr, ptr, ptr, ptr, ptr, ptr, ptr, ptr, ptr, ptr, ptr, ptr, ptr, ptr, ptr, ptr, ptr, ptr, ptr, ptr, ptr, ptr, ptr, ptr, ptr, ptr, ptr, ptr, ptr, ptr, ptr, ptr, ptr, ptr, ptr, ptr, ptr, ptr, ptr, ptr, ptr, ptr, ptr, ptr, ptr, ptr, ptr, ptr, ptr, ptr, ptr, ptr, ptr, ptr, ptr, ptr, ptr, ptr, ptr, ptr, ptr, ptr, ptr, ptr, ptr, ptr, ptr, ptr, ptr, ptr, ptr, ptr, ptr, ptr, ptr, ptr, ptr, ptr, ptr, ptr, ptr, ptr, ptr, ptr, ptr, ptr, ptr, ptr, ptr, ptr, ptr, ptr, ptr, ptr, ptr, ptr, ptr, ptr, ptr, ptr, ptr, ptr, ptr, ptr, ptr, ptr, ptr, ptr, ptr, ptr, ptr, ptr, ptr, ptr, ptr, ptr, ptr, ptr, ptr, ptr, ptr, ptr, ptr, ptr, ptr, ptr, ptr }

; Function Attrs: mustprogress uwtable
define linkonce_odr void @_ZN7JNIEnv_20GetDoubleArrayRegionEP13_jdoubleArrayiiPd(ptr noundef nonnull align 8 dereferenceable(8) %0, ptr noundef %1, i32 noundef %2, i32 noundef %3, ptr noundef %4) #4 comdat align 2 {
  %6 = alloca ptr, align 8
  %7 = alloca ptr, align 8
  %8 = alloca i32, align 4
  %9 = alloca i32, align 4
  %10 = alloca ptr, align 8
  store ptr %0, ptr %6, align 8, !tbaa !8
  store ptr %1, ptr %7, align 8, !tbaa !101
  store i32 %2, ptr %8, align 4, !tbaa !12
  store i32 %3, ptr %9, align 4, !tbaa !12
  store ptr %4, ptr %10, align 8, !tbaa !99
  %11 = load ptr, ptr %6, align 8
  %12 = getelementptr inbounds nuw %struct.JNIEnv_, ptr %11, i32 0, i32 0
  %13 = load ptr, ptr %12, align 8, !tbaa !84
  %14 = getelementptr inbounds nuw %struct.JNINativeInterface_, ptr %13, i32 0, i32 206
  %15 = load ptr, ptr %14, align 8, !tbaa !106
  %16 = load ptr, ptr %7, align 8, !tbaa !101
  %17 = load i32, ptr %8, align 4, !tbaa !12
  %18 = load i32, ptr %9, align 4, !tbaa !12
  %19 = load ptr, ptr %10, align 8, !tbaa !99
  call void %15(ptr noundef %11, ptr noundef %16, i32 noundef %17, i32 noundef %18, ptr noundef %19)
  ret void
}

; Function Attrs: mustprogress uwtable
define linkonce_odr void @_ZN7JNIEnv_20SetDoubleArrayRegionEP13_jdoubleArrayiiPKd(ptr noundef nonnull align 8 dereferenceable(8) %0, ptr noundef %1, i32 noundef %2, i32 noundef %3, ptr noundef %4) #4 comdat align 2 {
  %6 = alloca ptr, align 8
  %7 = alloca ptr, align 8
  %8 = alloca i32, align 4
  %9 = alloca i32, align 4
  %10 = alloca ptr, align 8
  store ptr %0, ptr %6, align 8, !tbaa !8
  store ptr %1, ptr %7, align 8, !tbaa !101
  store i32 %2, ptr %8, align 4, !tbaa !12
  store i32 %3, ptr %9, align 4, !tbaa !12
  store ptr %4, ptr %10, align 8, !tbaa !99
  %11 = load ptr, ptr %6, align 8
  %12 = getelementptr inbounds nuw %struct.JNIEnv_, ptr %11, i32 0, i32 0
  %13 = load ptr, ptr %12, align 8, !tbaa !84
  %14 = getelementptr inbounds nuw %struct.JNINativeInterface_, ptr %13, i32 0, i32 214
  %15 = load ptr, ptr %14, align 8, !tbaa !107
  %16 = load ptr, ptr %7, align 8, !tbaa !101
  %17 = load i32, ptr %8, align 4, !tbaa !12
  %18 = load i32, ptr %9, align 4, !tbaa !12
  %19 = load ptr, ptr %10, align 8, !tbaa !99
  call void %15(ptr noundef %11, ptr noundef %16, i32 noundef %17, i32 noundef %18, ptr noundef %19)
  ret void
}

; Function Attrs: mustprogress uwtable
define noundef zeroext i1 @_ZN6Jipopt6eval_gEiPKdbiPd(ptr noundef nonnull align 8 dereferenceable(232) %0, i32 noundef %1, ptr noundef %2, i1 noundef zeroext %3, i32 noundef %4, ptr noundef %5) unnamed_addr #4 align 2 {
  %7 = alloca i1, align 1
  %8 = alloca ptr, align 8
  %9 = alloca i32, align 4
  %10 = alloca ptr, align 8
  %11 = alloca i8, align 1
  %12 = alloca i32, align 4
  %13 = alloca ptr, align 8
  %14 = alloca i8, align 1
  %15 = alloca i32, align 4
  store ptr %0, ptr %8, align 8, !tbaa !3
  store i32 %1, ptr %9, align 4, !tbaa !12
  store ptr %2, ptr %10, align 8, !tbaa !99
  %16 = zext i1 %3 to i8
  store i8 %16, ptr %11, align 1, !tbaa !60
  store i32 %4, ptr %12, align 4, !tbaa !12
  store ptr %5, ptr %13, align 8, !tbaa !99
  %17 = load ptr, ptr %8, align 8
  %18 = load i8, ptr %11, align 1, !tbaa !60, !range !82, !noundef !83
  %19 = trunc i8 %18 to i1
  br i1 %19, label %20, label %27

20:                                               ; preds = %6
  %21 = getelementptr inbounds nuw %class.Jipopt, ptr %17, i32 0, i32 1
  %22 = load ptr, ptr %21, align 8, !tbaa !16
  %23 = getelementptr inbounds nuw %class.Jipopt, ptr %17, i32 0, i32 11
  %24 = load ptr, ptr %23, align 8, !tbaa !33
  %25 = load i32, ptr %9, align 4, !tbaa !12
  %26 = load ptr, ptr %10, align 8, !tbaa !99
  call void @_ZN7JNIEnv_20SetDoubleArrayRegionEP13_jdoubleArrayiiPKd(ptr noundef nonnull align 8 dereferenceable(8) %22, ptr noundef %24, i32 noundef 0, i32 noundef %25, ptr noundef %26)
  br label %27

27:                                               ; preds = %20, %6
  call void @llvm.lifetime.start.p0(i64 1, ptr %14) #3
  %28 = load i8, ptr %11, align 1, !tbaa !60, !range !82, !noundef !83
  %29 = trunc i8 %28 to i1
  %30 = zext i1 %29 to i8
  store i8 %30, ptr %14, align 1, !tbaa !105
  %31 = getelementptr inbounds nuw %class.Jipopt, ptr %17, i32 0, i32 1
  %32 = load ptr, ptr %31, align 8, !tbaa !16
  %33 = getelementptr inbounds nuw %class.Jipopt, ptr %17, i32 0, i32 2
  %34 = load ptr, ptr %33, align 8, !tbaa !24
  %35 = getelementptr inbounds nuw %class.Jipopt, ptr %17, i32 0, i32 24
  %36 = load ptr, ptr %35, align 8, !tbaa !47
  %37 = load i32, ptr %9, align 4, !tbaa !12
  %38 = getelementptr inbounds nuw %class.Jipopt, ptr %17, i32 0, i32 11
  %39 = load ptr, ptr %38, align 8, !tbaa !33
  %40 = load i8, ptr %14, align 1, !tbaa !105
  %41 = zext i8 %40 to i32
  %42 = load i32, ptr %12, align 4, !tbaa !12
  %43 = getelementptr inbounds nuw %class.Jipopt, ptr %17, i32 0, i32 14
  %44 = load ptr, ptr %43, align 8, !tbaa !36
  %45 = call noundef zeroext i8 (ptr, ptr, ptr, ...) @_ZN7JNIEnv_17CallBooleanMethodEP8_jobjectP10_jmethodIDz(ptr noundef nonnull align 8 dereferenceable(8) %32, ptr noundef %34, ptr noundef %36, i32 noundef %37, ptr noundef %39, i32 noundef %41, i32 noundef %42, ptr noundef %44)
  %46 = icmp ne i8 %45, 0
  br i1 %46, label %48, label %47

47:                                               ; preds = %27
  store i1 false, ptr %7, align 1
  store i32 1, ptr %15, align 4
  br label %55

48:                                               ; preds = %27
  %49 = getelementptr inbounds nuw %class.Jipopt, ptr %17, i32 0, i32 1
  %50 = load ptr, ptr %49, align 8, !tbaa !16
  %51 = getelementptr inbounds nuw %class.Jipopt, ptr %17, i32 0, i32 14
  %52 = load ptr, ptr %51, align 8, !tbaa !36
  %53 = load i32, ptr %12, align 4, !tbaa !12
  %54 = load ptr, ptr %13, align 8, !tbaa !99
  call void @_ZN7JNIEnv_20GetDoubleArrayRegionEP13_jdoubleArrayiiPd(ptr noundef nonnull align 8 dereferenceable(8) %50, ptr noundef %52, i32 noundef 0, i32 noundef %53, ptr noundef %54)
  store i1 true, ptr %7, align 1
  store i32 1, ptr %15, align 4
  br label %55

55:                                               ; preds = %48, %47
  call void @llvm.lifetime.end.p0(i64 1, ptr %14) #3
  %56 = load i1, ptr %7, align 1
  ret i1 %56
}