; Function Attrs: mustprogress uwtable
define noundef zeroext i1 @_ZN6Jipopt6eval_gEiPKdbiPd(ptr noundef nonnull readonly align 8 captures(none) dereferenceable(232) %0, i32 noundef %1, ptr noundef %2, i1 noundef zeroext %3, i32 noundef %4, ptr noundef %5) unnamed_addr #3 align 2 {
  br i1 %3, label %7, label %15

7:                                                ; preds = %6
  %8 = getelementptr inbounds nuw i8, ptr %0, i64 16
  %9 = load ptr, ptr %8, align 8, !tbaa !10
  %10 = getelementptr inbounds nuw i8, ptr %0, i64 80
  %11 = load ptr, ptr %10, align 8, !tbaa !94
  %12 = load ptr, ptr %9, align 8, !tbaa !48
  %13 = getelementptr inbounds nuw i8, ptr %12, i64 1712
  %14 = load ptr, ptr %13, align 8, !tbaa !98
  tail call void %14(ptr noundef nonnull align 8 dereferenceable(8) %9, ptr noundef %11, i32 noundef 0, i32 noundef %1, ptr noundef %2)
  br label %15

15:                                               ; preds = %7, %6
  %16 = getelementptr inbounds nuw i8, ptr %0, i64 16
  %17 = load ptr, ptr %16, align 8, !tbaa !10
  %18 = getelementptr inbounds nuw i8, ptr %0, i64 24
  %19 = load ptr, ptr %18, align 8, !tbaa !20
  %20 = getelementptr inbounds nuw i8, ptr %0, i64 176
  %21 = load ptr, ptr %20, align 8, !tbaa !58
  %22 = getelementptr inbounds nuw i8, ptr %0, i64 80
  %23 = load ptr, ptr %22, align 8, !tbaa !94
  %24 = zext i1 %3 to i32
  %25 = getelementptr inbounds nuw i8, ptr %0, i64 104
  %26 = load ptr, ptr %25, align 8, !tbaa !101
  %27 = tail call noundef zeroext i8 (ptr, ptr, ptr, ...) @_ZN7JNIEnv_17CallBooleanMethodEP8_jobjectP10_jmethodIDz(ptr noundef nonnull align 8 dereferenceable(8) %17, ptr noundef %19, ptr noundef %21, i32 noundef %1, ptr noundef %23, i32 noundef %24, i32 noundef %4, ptr noundef %26)
  %.not = icmp ne i8 %27, 0
  br i1 %.not, label %28, label %34

28:                                               ; preds = %15
  %29 = load ptr, ptr %16, align 8, !tbaa !10
  %30 = load ptr, ptr %25, align 8, !tbaa !101
  %31 = load ptr, ptr %29, align 8, !tbaa !48
  %32 = getelementptr inbounds nuw i8, ptr %31, i64 1648
  %33 = load ptr, ptr %32, align 8, !tbaa !92
  tail call void %33(ptr noundef nonnull align 8 dereferenceable(8) %29, ptr noundef %30, i32 noundef 0, i32 noundef %4, ptr noundef %5)
  br label %34

34:                                               ; preds = %15, %28
  ret i1 %.not
}